target datalayout = "e-m:e-p270:32:32-p271:32:32-p272:64:64-i64:64-i128:128-f80:128-n8:16:32:64-S128"
target triple = "x86_64-pc-linux-gnu"

%struct.fsck_options = type { ptr, ptr, i32, i32, ptr, %struct.oidset, %struct.oidset, %struct.oidset, %struct.oidset, %struct.oidset, ptr }
%struct.oidset = type { %struct.kh_oid_set }
%struct.kh_oid_set = type { i32, i32, i32, i32, ptr, ptr, ptr }
%struct.config_options = type { i8, ptr, ptr, ptr, ptr, i32 }
%struct.fsck_gitmodules_data = type { ptr, ptr, i32 }

@.str.29 = private unnamed_addr constant [12 x i8] c".gitmodules\00", align 1
@.str.130 = private unnamed_addr constant [31 x i8] c".gitmodules too large to parse\00", align 1
@.str.131 = private unnamed_addr constant [32 x i8] c"could not parse gitmodules blob\00", align 1
@.str.132 = private unnamed_addr constant [34 x i8] c".gitattributes too large to parse\00", align 1
@.str.133 = private unnamed_addr constant [43 x i8] c".gitattributes has too long lines to parse\00", align 1

; Function Attrs: nounwind uwtable
define internal i32 @object_on_skiplist(ptr noundef %0, ptr noundef %1) #0 {
  %3 = alloca ptr, align 8
  %4 = alloca ptr, align 8
  store ptr %0, ptr %3, align 8, !tbaa !24
  store ptr %1, ptr %4, align 8, !tbaa !69
  %5 = load ptr, ptr %3, align 8, !tbaa !24
  %6 = icmp ne ptr %5, null
  br i1 %6, label %7, label %16

7:                                                ; preds = %2
  %8 = load ptr, ptr %4, align 8, !tbaa !69
  %9 = icmp ne ptr %8, null
  br i1 %9, label %10, label %16

10:                                               ; preds = %7
  %11 = load ptr, ptr %3, align 8, !tbaa !24
  %12 = getelementptr inbounds nuw %struct.fsck_options, ptr %11, i32 0, i32 5
  %13 = load ptr, ptr %4, align 8, !tbaa !69
  %14 = call i32 @oidset_contains(ptr noundef %12, ptr noundef %13)
  %15 = icmp ne i32 %14, 0
  br label %16

16:                                               ; preds = %10, %7, %2
  %17 = phi i1 [ false, %7 ], [ false, %2 ], [ %15, %10 ]
  %18 = zext i1 %17 to i32
  ret i32 %18
}

; Function Attrs: nounwind uwtable
define internal i32 @fsck_blob(ptr noundef %0, ptr noundef %1, i64 noundef %2, ptr noundef %3) #0 {
  %5 = alloca i32, align 4
  %6 = alloca ptr, align 8
  %7 = alloca ptr, align 8
  %8 = alloca i64, align 8
  %9 = alloca ptr, align 8
  %10 = alloca i32, align 4
  %11 = alloca i32, align 4
  %12 = alloca %struct.config_options, align 8
  %13 = alloca %struct.fsck_gitmodules_data, align 8
  %14 = alloca ptr, align 8
  %15 = alloca ptr, align 8
  store ptr %0, ptr %6, align 8, !tbaa !69
  store ptr %1, ptr %7, align 8, !tbaa !9
  store i64 %2, ptr %8, align 8, !tbaa !35
  store ptr %3, ptr %9, align 8, !tbaa !24
  call void @llvm.lifetime.start.p0(i64 4, ptr %10) #11
  store i32 0, ptr %10, align 4, !tbaa !11
  %16 = load ptr, ptr %9, align 8, !tbaa !24
  %17 = load ptr, ptr %6, align 8, !tbaa !69
  %18 = call i32 @object_on_skiplist(ptr noundef %16, ptr noundef %17)
  %19 = icmp ne i32 %18, 0
  br i1 %19, label %20, label %21

20:                                               ; preds = %4
  store i32 0, ptr %5, align 4
  store i32 1, ptr %11, align 4
  br label %126

21:                                               ; preds = %4
  %22 = load ptr, ptr %9, align 8, !tbaa !24
  %23 = getelementptr inbounds nuw %struct.fsck_options, ptr %22, i32 0, i32 6
  %24 = load ptr, ptr %6, align 8, !tbaa !69
  %25 = call i32 @oidset_contains(ptr noundef %23, ptr noundef %24)
  %26 = icmp ne i32 %25, 0
  br i1 %26, label %27, label %64

27:                                               ; preds = %21
  call void @llvm.lifetime.start.p0(i64 48, ptr %12) #11
  call void @llvm.memset.p0.i64(ptr align 8 %12, i8 0, i64 48, i1 false)
  call void @llvm.lifetime.start.p0(i64 24, ptr %13) #11
  %28 = load ptr, ptr %9, align 8, !tbaa !24
  %29 = getelementptr inbounds nuw %struct.fsck_options, ptr %28, i32 0, i32 7
  %30 = load ptr, ptr %6, align 8, !tbaa !69
  %31 = call i32 @oidset_insert(ptr noundef %29, ptr noundef %30)
  %32 = load ptr, ptr %7, align 8, !tbaa !9
  %33 = icmp ne ptr %32, null
  br i1 %33, label %38, label %34

34:                                               ; preds = %27
  %35 = load ptr, ptr %9, align 8, !tbaa !24
  %36 = load ptr, ptr %6, align 8, !tbaa !69
  %37 = call i32 (ptr, ptr, i32, i32, ptr, ...) @report(ptr noundef %35, ptr noundef %36, i32 noundef 3, i32 noundef 35, ptr noundef @.str.130)
  store i32 %37, ptr %5, align 4
  store i32 1, ptr %11, align 4
  br label %61

38:                                               ; preds = %27
  %39 = load ptr, ptr %6, align 8, !tbaa !69
  %40 = getelementptr inbounds nuw %struct.fsck_gitmodules_data, ptr %13, i32 0, i32 0
  store ptr %39, ptr %40, align 8, !tbaa !124
  %41 = load ptr, ptr %9, align 8, !tbaa !24
  %42 = getelementptr inbounds nuw %struct.fsck_gitmodules_data, ptr %13, i32 0, i32 1
  store ptr %41, ptr %42, align 8, !tbaa !126
  %43 = getelementptr inbounds nuw %struct.fsck_gitmodules_data, ptr %13, i32 0, i32 2
  store i32 0, ptr %43, align 8, !tbaa !127
  %44 = getelementptr inbounds nuw %struct.config_options, ptr %12, i32 0, i32 5
  store i32 3, ptr %44, align 8, !tbaa !128
  %45 = load ptr, ptr %7, align 8, !tbaa !9
  %46 = load i64, ptr %8, align 8, !tbaa !35
  %47 = call i32 @git_config_from_mem(ptr noundef @fsck_gitmodules_fn, i32 noundef 1, ptr noundef @.str.29, ptr noundef %45, i64 noundef %46, ptr noundef %13, i32 noundef 0, ptr noundef %12)
  %48 = icmp ne i32 %47, 0
  br i1 %48, label %49, label %56

49:                                               ; preds = %38
  %50 = load ptr, ptr %9, align 8, !tbaa !24
  %51 = load ptr, ptr %6, align 8, !tbaa !69
  %52 = call i32 (ptr, ptr, i32, i32, ptr, ...) @report(ptr noundef %50, ptr noundef %51, i32 noundef 3, i32 noundef 55, ptr noundef @.str.131)
  %53 = getelementptr inbounds nuw %struct.fsck_gitmodules_data, ptr %13, i32 0, i32 2
  %54 = load i32, ptr %53, align 8, !tbaa !127
  %55 = or i32 %54, %52
  store i32 %55, ptr %53, align 8, !tbaa !127
  br label %56

56:                                               ; preds = %49, %38
  %57 = getelementptr inbounds nuw %struct.fsck_gitmodules_data, ptr %13, i32 0, i32 2
  %58 = load i32, ptr %57, align 8, !tbaa !127
  %59 = load i32, ptr %10, align 4, !tbaa !11
  %60 = or i32 %59, %58
  store i32 %60, ptr %10, align 4, !tbaa !11
  store i32 0, ptr %11, align 4
  br label %61

61:                                               ; preds = %56, %34
  call void @llvm.lifetime.end.p0(i64 24, ptr %13) #11
  call void @llvm.lifetime.end.p0(i64 48, ptr %12) #11
  %62 = load i32, ptr %11, align 4
  switch i32 %62, label %126 [
    i32 0, label %63
  ]

63:                                               ; preds = %61
  br label %64

64:                                               ; preds = %63, %21
  %65 = load ptr, ptr %9, align 8, !tbaa !24
  %66 = getelementptr inbounds nuw %struct.fsck_options, ptr %65, i32 0, i32 8
  %67 = load ptr, ptr %6, align 8, !tbaa !69
  %68 = call i32 @oidset_contains(ptr noundef %66, ptr noundef %67)
  %69 = icmp ne i32 %68, 0
  br i1 %69, label %70, label %124

70:                                               ; preds = %64
  call void @llvm.lifetime.start.p0(i64 8, ptr %14) #11
  %71 = load ptr, ptr %9, align 8, !tbaa !24
  %72 = getelementptr inbounds nuw %struct.fsck_options, ptr %71, i32 0, i32 9
  %73 = load ptr, ptr %6, align 8, !tbaa !69
  %74 = call i32 @oidset_insert(ptr noundef %72, ptr noundef %73)
  %75 = load ptr, ptr %7, align 8, !tbaa !9
  %76 = icmp ne ptr %75, null
  br i1 %76, label %77, label %80

77:                                               ; preds = %70
  %78 = load i64, ptr %8, align 8, !tbaa !35
  %79 = icmp ugt i64 %78, 104857600
  br i1 %79, label %80, label %84

80:                                               ; preds = %77, %70
  %81 = load ptr, ptr %9, align 8, !tbaa !24
  %82 = load ptr, ptr %6, align 8, !tbaa !69
  %83 = call i32 (ptr, ptr, i32, i32, ptr, ...) @report(ptr noundef %81, ptr noundef %82, i32 noundef 3, i32 noundef 42, ptr noundef @.str.132)
  store i32 %83, ptr %5, align 4
  store i32 1, ptr %11, align 4
  br label %121

84:                                               ; preds = %77
  %85 = load ptr, ptr %7, align 8, !tbaa !9
  store ptr %85, ptr %14, align 8, !tbaa !9
  br label %86

86:                                               ; preds = %119, %84
  %87 = load ptr, ptr %14, align 8, !tbaa !9
  %88 = load i8, ptr %87, align 1, !tbaa !19
  %89 = icmp ne i8 %88, 0
  br i1 %89, label %90, label %120

90:                                               ; preds = %86
  call void @llvm.lifetime.start.p0(i64 8, ptr %15) #11
  %91 = load ptr, ptr %14, align 8, !tbaa !9
  %92 = call ptr @strchrnul(ptr noundef %91, i32 noundef 10) #12
  store ptr %92, ptr %15, align 8, !tbaa !9
  %93 = load ptr, ptr %15, align 8, !tbaa !9
  %94 = load ptr, ptr %14, align 8, !tbaa !9
  %95 = ptrtoint ptr %93 to i64
  %96 = ptrtoint ptr %94 to i64
  %97 = sub i64 %95, %96
  %98 = icmp sge i64 %97, 2048
  br i1 %98, label %99, label %105

99:                                               ; preds = %90
  %100 = load ptr, ptr %9, align 8, !tbaa !24
  %101 = load ptr, ptr %6, align 8, !tbaa !69
  %102 = call i32 (ptr, ptr, i32, i32, ptr, ...) @report(ptr noundef %100, ptr noundef %101, i32 noundef 3, i32 noundef 43, ptr noundef @.str.133)
  %103 = load i32, ptr %10, align 4, !tbaa !11
  %104 = or i32 %103, %102
  store i32 %104, ptr %10, align 4, !tbaa !11
  store i32 2, ptr %11, align 4
  br label %117

105:                                              ; preds = %90
  %106 = load ptr, ptr %15, align 8, !tbaa !9
  %107 = load i8, ptr %106, align 1, !tbaa !19
  %108 = sext i8 %107 to i32
  %109 = icmp ne i32 %108, 0
  br i1 %109, label %110, label %113

110:                                              ; preds = %105
  %111 = load ptr, ptr %15, align 8, !tbaa !9
  %112 = getelementptr inbounds i8, ptr %111, i64 1
  br label %115

113:                                              ; preds = %105
  %114 = load ptr, ptr %15, align 8, !tbaa !9
  br label %115

115:                                              ; preds = %113, %110
  %116 = phi ptr [ %112, %110 ], [ %114, %113 ]
  store ptr %116, ptr %14, align 8, !tbaa !9
  store i32 0, ptr %11, align 4
  br label %117

117:                                              ; preds = %115, %99
  call void @llvm.lifetime.end.p0(i64 8, ptr %15) #11
  %118 = load i32, ptr %11, align 4
  switch i32 %118, label %128 [
    i32 0, label %119
    i32 2, label %120
  ]

119:                                              ; preds = %117
  br label %86, !llvm.loop !130

120:                                              ; preds = %117, %86
  store i32 0, ptr %11, align 4
  br label %121

121:                                              ; preds = %120, %80
  call void @llvm.lifetime.end.p0(i64 8, ptr %14) #11
  %122 = load i32, ptr %11, align 4
  switch i32 %122, label %126 [
    i32 0, label %123
  ]

123:                                              ; preds = %121
  br label %124

124:                                              ; preds = %123, %64
  %125 = load i32, ptr %10, align 4, !tbaa !11
  store i32 %125, ptr %5, align 4
  store i32 1, ptr %11, align 4
  br label %126

126:                                              ; preds = %124, %121, %61, %20
  call void @llvm.lifetime.end.p0(i64 4, ptr %10) #11
  %127 = load i32, ptr %5, align 4
  ret i32 %127

128:                                              ; preds = %117
  unreachable
}