; Function Attrs: nounwind uwtable
define internal fastcc i32 @fsck_blob(ptr noundef %0, ptr noundef %1, i64 noundef %2, ptr noundef %3) unnamed_addr #0 {
  %5 = alloca %struct.config_options, align 8
  %6 = alloca %struct.fsck_gitmodules_data, align 8
  %7 = icmp ne ptr %3, null
  %8 = icmp ne ptr %0, null
  %or.cond.i = and i1 %8, %7
  br i1 %or.cond.i, label %object_on_skiplist.exit, label %object_on_skiplist.exit.thread

object_on_skiplist.exit:                          ; preds = %4
  %9 = getelementptr inbounds nuw i8, ptr %3, i64 32
  %10 = tail call i32 @oidset_contains(ptr noundef nonnull %9, ptr noundef nonnull %0) #16
  %.not68 = icmp eq i32 %10, 0
  br i1 %.not68, label %object_on_skiplist.exit.thread, label %.loopexit

object_on_skiplist.exit.thread:                   ; preds = %4, %object_on_skiplist.exit
  %11 = getelementptr inbounds nuw i8, ptr %3, i64 72
  %12 = tail call i32 @oidset_contains(ptr noundef nonnull %11, ptr noundef %0) #16
  %.not52 = icmp eq i32 %12, 0
  br i1 %.not52, label %28, label %13

13:                                               ; preds = %object_on_skiplist.exit.thread
  call void @llvm.lifetime.start.p0(i64 48, ptr nonnull %5) #16
  call void @llvm.memset.p0.i64(ptr noundef nonnull align 8 dereferenceable(48) %5, i8 0, i64 48, i1 false)
  call void @llvm.lifetime.start.p0(i64 24, ptr nonnull %6) #16
  %14 = getelementptr inbounds nuw i8, ptr %3, i64 112
  %15 = tail call i32 @oidset_insert(ptr noundef nonnull %14, ptr noundef %0) #16
  %.not53.not = icmp eq ptr %1, null
  br i1 %.not53.not, label %.thread, label %17

.thread:                                          ; preds = %13
  %16 = tail call i32 (ptr, ptr, i32, i32, ptr, ...) @report(ptr noundef nonnull %3, ptr noundef %0, i32 noundef 3, i32 noundef 35, ptr noundef nonnull @.str.130)
  call void @llvm.lifetime.end.p0(i64 24, ptr nonnull %6) #16
  call void @llvm.lifetime.end.p0(i64 48, ptr nonnull %5) #16
  br label %.loopexit

17:                                               ; preds = %13
  store ptr %0, ptr %6, align 8, !tbaa !112
  %18 = getelementptr inbounds nuw i8, ptr %6, i64 8
  store ptr %3, ptr %18, align 8, !tbaa !115
  %19 = getelementptr inbounds nuw i8, ptr %6, i64 16
  store i32 0, ptr %19, align 8, !tbaa !116
  %20 = getelementptr inbounds nuw i8, ptr %5, i64 40
  store i32 3, ptr %20, align 8, !tbaa !117
  %21 = call i32 @git_config_from_mem(ptr noundef nonnull @fsck_gitmodules_fn, i32 noundef 1, ptr noundef nonnull @.str.29, ptr noundef nonnull %1, i64 noundef %2, ptr noundef nonnull %6, i32 noundef 0, ptr noundef nonnull %5) #16
  %.not54 = icmp eq i32 %21, 0
  br i1 %.not54, label %._crit_edge, label %22

._crit_edge:                                      ; preds = %17
  %.pre = load i32, ptr %19, align 8, !tbaa !116
  br label %26

22:                                               ; preds = %17
  %23 = call i32 (ptr, ptr, i32, i32, ptr, ...) @report(ptr noundef nonnull %3, ptr noundef %0, i32 noundef 3, i32 noundef 55, ptr noundef nonnull @.str.131)
  %24 = load i32, ptr %19, align 8, !tbaa !116
  %25 = or i32 %24, %23
  br label %26

26:                                               ; preds = %._crit_edge, %22
  %27 = phi i32 [ %.pre, %._crit_edge ], [ %25, %22 ]
  call void @llvm.lifetime.end.p0(i64 24, ptr nonnull %6) #16
  call void @llvm.lifetime.end.p0(i64 48, ptr nonnull %5) #16
  br label %28

28:                                               ; preds = %26, %object_on_skiplist.exit.thread
  %.046 = phi i32 [ %27, %26 ], [ 0, %object_on_skiplist.exit.thread ]
  %29 = getelementptr inbounds nuw i8, ptr %3, i64 152
  %30 = call i32 @oidset_contains(ptr noundef nonnull %29, ptr noundef %0) #16
  %.not55 = icmp eq i32 %30, 0
  br i1 %.not55, label %.loopexit, label %31

31:                                               ; preds = %28
  %32 = getelementptr inbounds nuw i8, ptr %3, i64 192
  %33 = call i32 @oidset_insert(ptr noundef nonnull %32, ptr noundef %0) #16
  %34 = icmp ne ptr %1, null
  %35 = icmp ult i64 %2, 104857601
  %or.cond.not = and i1 %34, %35
  br i1 %or.cond.not, label %.preheader, label %37

.preheader:                                       ; preds = %31
  %36 = load i8, ptr %1, align 1, !tbaa !15
  %.not5669 = icmp eq i8 %36, 0
  br i1 %.not5669, label %.loopexit, label %.lr.ph

37:                                               ; preds = %31
  %38 = call i32 (ptr, ptr, i32, i32, ptr, ...) @report(ptr noundef nonnull %3, ptr noundef %0, i32 noundef 3, i32 noundef 42, ptr noundef nonnull @.str.132)
  br label %.loopexit

.lr.ph:                                           ; preds = %.preheader, %46
  %.04170 = phi ptr [ %48, %46 ], [ %1, %.preheader ]
  %39 = call ptr @strchrnul(ptr noundef nonnull %.04170, i32 noundef 10) #17
  %40 = ptrtoint ptr %39 to i64
  %41 = ptrtoint ptr %.04170 to i64
  %42 = sub i64 %40, %41
  %43 = icmp sgt i64 %42, 2047
  br i1 %43, label %.thread63, label %46

.thread63:                                        ; preds = %.lr.ph
  %44 = call i32 (ptr, ptr, i32, i32, ptr, ...) @report(ptr noundef %3, ptr noundef %0, i32 noundef 3, i32 noundef 43, ptr noundef nonnull @.str.133)
  %45 = or i32 %44, %.046
  br label %.loopexit

46:                                               ; preds = %.lr.ph
  %47 = load i8, ptr %39, align 1, !tbaa !15
  %.not57 = icmp ne i8 %47, 0
  %.idx = zext i1 %.not57 to i64
  %48 = getelementptr inbounds nuw i8, ptr %39, i64 %.idx
  %49 = load i8, ptr %48, align 1, !tbaa !15
  %.not56 = icmp eq i8 %49, 0
  br i1 %.not56, label %.loopexit, label %.lr.ph

.loopexit:                                        ; preds = %46, %.preheader, %37, %.thread63, %.thread, %28, %object_on_skiplist.exit
  %.0 = phi i32 [ 0, %object_on_skiplist.exit ], [ %.046, %28 ], [ %16, %.thread ], [ %38, %37 ], [ %45, %.thread63 ], [ %.046, %.preheader ], [ %.046, %46 ]
  ret i32 %.0
}